target datalayout = "e-m:e-p270:32:32-p271:32:32-p272:64:64-i64:64-i128:128-f80:128-n8:16:32:64-S128"
target triple = "x86_64-pc-linux-gnu"

%struct.AVFormatContext = type { ptr, ptr, ptr, ptr, ptr, i32, i32, ptr, i32, ptr, i32, ptr, ptr, i64, i64, i64, i32, i32, i32, i64, i64, ptr, i32, i32, ptr, i32, i32, i32, i32, ptr, i64, i32, i32, %struct.AVIOInterruptCB, i32, i32, i32, i32, i64, i32, i32, i32, i32, i32, i32, i32, i32, i32, i32, i32, i32, i64, i32, i32, i32, i32, i32, ptr, ptr, ptr, ptr, i32, ptr, ptr, ptr, ptr, i32, ptr, ptr, i64, ptr, ptr, ptr, i64 }
%struct.AVIOInterruptCB = type { ptr, ptr }

@ff_rm_metadata = external constant [4 x ptr], align 16

; Function Attrs: inlinehint nounwind uwtable
define internal void @get_strl(ptr noundef %0, ptr noundef %1, i32 noundef %2, i32 noundef %3) #5 {
  %5 = alloca ptr, align 8
  %6 = alloca ptr, align 8
  %7 = alloca i32, align 4
  %8 = alloca i32, align 4
  %9 = alloca i32, align 4
  store ptr %0, ptr %5, align 8, !tbaa !20
  store ptr %1, ptr %6, align 8, !tbaa !25
  store i32 %2, ptr %7, align 4, !tbaa !24
  store i32 %3, ptr %8, align 4, !tbaa !24
  call void @llvm.lifetime.start.p0(i64 4, ptr %9) #10
  %10 = load ptr, ptr %5, align 8, !tbaa !20
  %11 = load i32, ptr %8, align 4, !tbaa !24
  %12 = load ptr, ptr %6, align 8, !tbaa !25
  %13 = load i32, ptr %7, align 4, !tbaa !24
  %14 = call i32 @avio_get_str(ptr noundef %10, i32 noundef %11, ptr noundef %12, i32 noundef %13)
  store i32 %14, ptr %9, align 4, !tbaa !24
  %15 = load i32, ptr %9, align 4, !tbaa !24
  %16 = icmp sgt i32 %15, 0
  br i1 %16, label %17, label %24

17:                                               ; preds = %4
  %18 = load ptr, ptr %5, align 8, !tbaa !20
  %19 = load i32, ptr %8, align 4, !tbaa !24
  %20 = load i32, ptr %9, align 4, !tbaa !24
  %21 = sub nsw i32 %19, %20
  %22 = sext i32 %21 to i64
  %23 = call i64 @avio_skip(ptr noundef %18, i64 noundef %22)
  br label %24

24:                                               ; preds = %17, %4
  call void @llvm.lifetime.end.p0(i64 4, ptr %9) #10
  ret void
}

; Function Attrs: nounwind uwtable
define internal void @rm_read_metadata(ptr noundef %0, ptr noundef %1, i32 noundef %2) #0 {
  %4 = alloca ptr, align 8
  %5 = alloca ptr, align 8
  %6 = alloca i32, align 4
  %7 = alloca [1024 x i8], align 16
  %8 = alloca i32, align 4
  %9 = alloca i32, align 4
  store ptr %0, ptr %4, align 8, !tbaa !18
  store ptr %1, ptr %5, align 8, !tbaa !20
  store i32 %2, ptr %6, align 4, !tbaa !24
  call void @llvm.lifetime.start.p0(i64 1024, ptr %7) #10
  call void @llvm.lifetime.start.p0(i64 4, ptr %8) #10
  store i32 0, ptr %8, align 4, !tbaa !24
  br label %10

10:                                               ; preds = %40, %3
  %11 = load i32, ptr %8, align 4, !tbaa !24
  %12 = sext i32 %11 to i64
  %13 = icmp ult i64 %12, 4
  br i1 %13, label %14, label %43

14:                                               ; preds = %10
  call void @llvm.lifetime.start.p0(i64 4, ptr %9) #10
  %15 = load i32, ptr %6, align 4, !tbaa !24
  %16 = icmp ne i32 %15, 0
  br i1 %16, label %17, label %20

17:                                               ; preds = %14
  %18 = load ptr, ptr %5, align 8, !tbaa !20
  %19 = call i32 @avio_rb16(ptr noundef %18)
  br label %23

20:                                               ; preds = %14
  %21 = load ptr, ptr %5, align 8, !tbaa !20
  %22 = call i32 @avio_r8(ptr noundef %21)
  br label %23

23:                                               ; preds = %20, %17
  %24 = phi i32 [ %19, %17 ], [ %22, %20 ]
  store i32 %24, ptr %9, align 4, !tbaa !24
  %25 = load i32, ptr %9, align 4, !tbaa !24
  %26 = icmp sgt i32 %25, 0
  br i1 %26, label %27, label %39

27:                                               ; preds = %23
  %28 = load ptr, ptr %5, align 8, !tbaa !20
  %29 = getelementptr inbounds [1024 x i8], ptr %7, i64 0, i64 0
  %30 = load i32, ptr %9, align 4, !tbaa !24
  call void @get_strl(ptr noundef %28, ptr noundef %29, i32 noundef 1024, i32 noundef %30)
  %31 = load ptr, ptr %4, align 8, !tbaa !18
  %32 = getelementptr inbounds nuw %struct.AVFormatContext, ptr %31, i32 0, i32 29
  %33 = load i32, ptr %8, align 4, !tbaa !24
  %34 = sext i32 %33 to i64
  %35 = getelementptr inbounds [4 x ptr], ptr @ff_rm_metadata, i64 0, i64 %34
  %36 = load ptr, ptr %35, align 8, !tbaa !25
  %37 = getelementptr inbounds [1024 x i8], ptr %7, i64 0, i64 0
  %38 = call i32 @av_dict_set(ptr noundef %32, ptr noundef %36, ptr noundef %37, i32 noundef 0)
  br label %39

39:                                               ; preds = %27, %23
  call void @llvm.lifetime.end.p0(i64 4, ptr %9) #10
  br label %40

40:                                               ; preds = %39
  %41 = load i32, ptr %8, align 4, !tbaa !24
  %42 = add nsw i32 %41, 1
  store i32 %42, ptr %8, align 4, !tbaa !24
  br label %10, !llvm.loop !143

43:                                               ; preds = %10
  call void @llvm.lifetime.end.p0(i64 4, ptr %8) #10
  call void @llvm.lifetime.end.p0(i64 1024, ptr %7) #10
  ret void
}