; Function Attrs: nounwind uwtable
define internal fastcc void @rm_read_metadata(ptr noundef %0, ptr noundef %1, i32 noundef range(i32 0, 2) %2) unnamed_addr #0 {
  %4 = alloca [1024 x i8], align 16
  call void @llvm.lifetime.start.p0(i64 1024, ptr nonnull %4) #12
  %.not = icmp eq i32 %2, 0
  %5 = getelementptr inbounds nuw i8, ptr %0, i64 192
  br i1 %.not, label %.split.us, label %.split

.split.us:                                        ; preds = %3, %18
  %indvars.iv16 = phi i64 [ %indvars.iv.next17, %18 ], [ 0, %3 ]
  %6 = call i32 @avio_r8(ptr noundef %1) #12
  %7 = icmp sgt i32 %6, 0
  br i1 %7, label %8, label %18

8:                                                ; preds = %.split.us
  %9 = call i32 @avio_get_str(ptr noundef %1, i32 noundef %6, ptr noundef nonnull %4, i32 noundef 1024) #12
  %10 = icmp sgt i32 %9, 0
  br i1 %10, label %11, label %get_strl.exit.us

11:                                               ; preds = %8
  %12 = sub nsw i32 %6, %9
  %13 = sext i32 %12 to i64
  %14 = call i64 @avio_skip(ptr noundef %1, i64 noundef %13) #12
  br label %get_strl.exit.us

get_strl.exit.us:                                 ; preds = %11, %8
  %15 = getelementptr inbounds nuw [4 x ptr], ptr @ff_rm_metadata, i64 0, i64 %indvars.iv16
  %16 = load ptr, ptr %15, align 8, !tbaa !57
  %17 = call i32 @av_dict_set(ptr noundef nonnull %5, ptr noundef %16, ptr noundef nonnull %4, i32 noundef 0) #12
  br label %18

18:                                               ; preds = %get_strl.exit.us, %.split.us
  %indvars.iv.next17 = add nuw nsw i64 %indvars.iv16, 1
  %exitcond19.not = icmp eq i64 %indvars.iv.next17, 4
  br i1 %exitcond19.not, label %.split13.us, label %.split.us, !llvm.loop !58

.split:                                           ; preds = %3, %31
  %indvars.iv = phi i64 [ %indvars.iv.next, %31 ], [ 0, %3 ]
  %19 = call i32 @avio_rb16(ptr noundef %1) #12
  %20 = icmp sgt i32 %19, 0
  br i1 %20, label %21, label %31

21:                                               ; preds = %.split
  %22 = call i32 @avio_get_str(ptr noundef %1, i32 noundef %19, ptr noundef nonnull %4, i32 noundef 1024) #12
  %23 = icmp sgt i32 %22, 0
  br i1 %23, label %24, label %get_strl.exit

24:                                               ; preds = %21
  %25 = sub nsw i32 %19, %22
  %26 = sext i32 %25 to i64
  %27 = call i64 @avio_skip(ptr noundef %1, i64 noundef %26) #12
  br label %get_strl.exit

get_strl.exit:                                    ; preds = %21, %24
  %28 = getelementptr inbounds nuw [4 x ptr], ptr @ff_rm_metadata, i64 0, i64 %indvars.iv
  %29 = load ptr, ptr %28, align 8, !tbaa !57
  %30 = call i32 @av_dict_set(ptr noundef nonnull %5, ptr noundef %29, ptr noundef nonnull %4, i32 noundef 0) #12
  br label %31

31:                                               ; preds = %get_strl.exit, %.split
  %indvars.iv.next = add nuw nsw i64 %indvars.iv, 1
  %exitcond.not = icmp eq i64 %indvars.iv.next, 4
  br i1 %exitcond.not, label %.split13.us, label %.split, !llvm.loop !58

.split13.us:                                      ; preds = %31, %18
  call void @llvm.lifetime.end.p0(i64 1024, ptr nonnull %4) #12
  ret void
}